target datalayout = "e-m:e-p270:32:32-p271:32:32-p272:64:64-i64:64-i128:128-f80:128-n8:16:32:64-S128"
target triple = "x86_64-pc-linux-gnu"

%struct.ParseState = type { ptr, ptr, i32, i32, ptr, ptr, ptr, ptr, ptr, ptr, i8, ptr, ptr, ptr, ptr, ptr, ptr, i8, ptr, i32, i32, ptr, ptr, i8, i8, ptr, i8, i8, i8, i8, i8, ptr, ptr, ptr, ptr, ptr, ptr }
%struct.ParseNamespaceItem = type { ptr, ptr, i32, ptr, ptr, i8, i8, i8, i8, i32 }
%struct.Alias = type { i32, ptr, ptr }

@.str.1 = private unnamed_addr constant [17 x i8] c"parse_relation.c\00", align 1
@.str.51 = private unnamed_addr constant [54 x i8] c"invalid reference to FROM-clause entry for table \22%s\22\00", align 1
@.str.53 = private unnamed_addr constant [91 x i8] c"There is an entry for table \22%s\22, but it cannot be referenced from this part of the query.\00", align 1
@.str.69 = private unnamed_addr constant [71 x i8] c"The combining JOIN type must be INNER or LEFT for a LATERAL reference.\00", align 1
@__func__.check_lateral_ref_ok = private unnamed_addr constant [21 x i8] c"check_lateral_ref_ok\00", align 1

; Function Attrs: nounwind uwtable
define internal void @check_lateral_ref_ok(ptr noundef %0, ptr noundef %1, i32 noundef %2) #0 {
  %4 = alloca ptr, align 8
  %5 = alloca ptr, align 8
  %6 = alloca i32, align 4
  %7 = alloca ptr, align 8
  %8 = alloca ptr, align 8
  store ptr %0, ptr %4, align 8
  store ptr %1, ptr %5, align 8
  store i32 %2, ptr %6, align 4
  %9 = load ptr, ptr %5, align 8
  %10 = getelementptr inbounds nuw %struct.ParseNamespaceItem, ptr %9, i32 0, i32 7
  %11 = load i8, ptr %10, align 2, !range !6, !noundef !7
  %12 = trunc i8 %11 to i1
  br i1 %12, label %13, label %60

13:                                               ; preds = %3
  %14 = load ptr, ptr %5, align 8
  %15 = getelementptr inbounds nuw %struct.ParseNamespaceItem, ptr %14, i32 0, i32 8
  %16 = load i8, ptr %15, align 1, !range !6, !noundef !7
  %17 = trunc i8 %16 to i1
  br i1 %17, label %60, label %18

18:                                               ; preds = %13
  call void @llvm.lifetime.start.p0(i64 8, ptr %7) #8
  %19 = load ptr, ptr %5, align 8
  %20 = getelementptr inbounds nuw %struct.ParseNamespaceItem, ptr %19, i32 0, i32 1
  %21 = load ptr, ptr %20, align 8
  store ptr %21, ptr %7, align 8
  call void @llvm.lifetime.start.p0(i64 8, ptr %8) #8
  %22 = load ptr, ptr %5, align 8
  %23 = getelementptr inbounds nuw %struct.ParseNamespaceItem, ptr %22, i32 0, i32 0
  %24 = load ptr, ptr %23, align 8
  %25 = getelementptr inbounds nuw %struct.Alias, ptr %24, i32 0, i32 1
  %26 = load ptr, ptr %25, align 8
  store ptr %26, ptr %8, align 8
  br label %27

27:                                               ; preds = %18
  br i1 true, label %28, label %30

28:                                               ; preds = %27
  %29 = call zeroext i1 @errstart_cold(i32 noundef 21, ptr noundef null) #9
  br i1 %29, label %32, label %57

30:                                               ; preds = %27
  %31 = call zeroext i1 @errstart(i32 noundef 21, ptr noundef null)
  br i1 %31, label %32, label %57

32:                                               ; preds = %30, %28
  %33 = call i32 @errcode(i32 noundef 393348)
  %34 = load ptr, ptr %8, align 8
  %35 = call i32 (ptr, ...) @errmsg(ptr noundef @.str.51, ptr noundef %34)
  %36 = load ptr, ptr %4, align 8
  %37 = getelementptr inbounds nuw %struct.ParseState, ptr %36, i32 0, i32 15
  %38 = load ptr, ptr %37, align 8
  %39 = icmp ne ptr %38, null
  br i1 %39, label %40, label %51

40:                                               ; preds = %32
  %41 = load ptr, ptr %7, align 8
  %42 = load ptr, ptr %4, align 8
  %43 = getelementptr inbounds nuw %struct.ParseState, ptr %42, i32 0, i32 15
  %44 = load ptr, ptr %43, align 8
  %45 = getelementptr inbounds nuw %struct.ParseNamespaceItem, ptr %44, i32 0, i32 1
  %46 = load ptr, ptr %45, align 8
  %47 = icmp eq ptr %41, %46
  br i1 %47, label %48, label %51

48:                                               ; preds = %40
  %49 = load ptr, ptr %8, align 8
  %50 = call i32 (ptr, ...) @errhint(ptr noundef @.str.53, ptr noundef %49)
  br label %53

51:                                               ; preds = %40, %32
  %52 = call i32 (ptr, ...) @errdetail(ptr noundef @.str.69)
  br label %53

53:                                               ; preds = %51, %48
  %54 = load ptr, ptr %4, align 8
  %55 = load i32, ptr %6, align 4
  %56 = call i32 @parser_errposition(ptr noundef %54, i32 noundef %55)
  call void @errfinish(ptr noundef @.str.1, i32 noundef 509, ptr noundef @__func__.check_lateral_ref_ok)
  br label %57

57:                                               ; preds = %53, %30, %28
  unreachable

58:                                               ; No predecessors!
  br label %59

59:                                               ; preds = %58
  call void @llvm.lifetime.end.p0(i64 8, ptr %8) #8
  call void @llvm.lifetime.end.p0(i64 8, ptr %7) #8
  br label %60

60:                                               ; preds = %59, %13, %3
  ret void
}