; Function Attrs: nounwind uwtable
define internal fastcc void @check_lateral_ref_ok(ptr noundef nonnull %0, ptr noundef readonly captures(none) %1, i32 noundef %2) unnamed_addr #0 {
  %4 = getelementptr inbounds nuw i8, ptr %1, i64 42
  %5 = load i8, ptr %4, align 2, !range !4, !noundef !5
  %6 = trunc nuw i8 %5 to i1
  br i1 %6, label %7, label %32

7:                                                ; preds = %3
  %8 = getelementptr inbounds nuw i8, ptr %1, i64 43
  %9 = load i8, ptr %8, align 1, !range !4, !noundef !5
  %10 = trunc nuw i8 %9 to i1
  br i1 %10, label %32, label %11

11:                                               ; preds = %7
  %12 = getelementptr inbounds nuw i8, ptr %1, i64 8
  %13 = load ptr, ptr %12, align 8
  %14 = load ptr, ptr %1, align 8
  %15 = getelementptr inbounds nuw i8, ptr %14, i64 8
  %16 = load ptr, ptr %15, align 8
  %17 = tail call zeroext i1 @errstart_cold(i32 noundef 21, ptr noundef null) #13
  tail call void @llvm.assume(i1 %17)
  %18 = tail call i32 @errcode(i32 noundef 393348) #11
  %19 = tail call i32 (ptr, ...) @errmsg(ptr noundef nonnull @.str.51, ptr noundef %16) #11
  %20 = getelementptr inbounds nuw i8, ptr %0, i64 112
  %21 = load ptr, ptr %20, align 8
  %.not = icmp eq ptr %21, null
  br i1 %.not, label %28, label %22

22:                                               ; preds = %11
  %23 = getelementptr inbounds nuw i8, ptr %21, i64 8
  %24 = load ptr, ptr %23, align 8
  %25 = icmp eq ptr %13, %24
  br i1 %25, label %26, label %28

26:                                               ; preds = %22
  %27 = tail call i32 (ptr, ...) @errhint(ptr noundef nonnull @.str.53, ptr noundef %16) #11
  br label %30

28:                                               ; preds = %22, %11
  %29 = tail call i32 (ptr, ...) @errdetail(ptr noundef nonnull @.str.69) #11
  br label %30

30:                                               ; preds = %28, %26
  %31 = tail call i32 @parser_errposition(ptr noundef nonnull %0, i32 noundef %2) #11
  tail call void @errfinish(ptr noundef nonnull @.str.1, i32 noundef 509, ptr noundef nonnull @__func__.check_lateral_ref_ok) #11
  unreachable

32:                                               ; preds = %7, %3
  ret void
}